target datalayout = "e-m:e-p270:32:32-p271:32:32-p272:64:64-i64:64-i128:128-f80:128-n8:16:32:64-S128"
target triple = "x86_64-pc-linux-gnu"

%struct.Extra_SymmInfo_t_ = type { i32, i32, i32, i32, ptr, ptr }

; Function Attrs: nounwind uwtable
define ptr @Extra_SymmPairsAllocate(i32 noundef %0) #0 {
  %2 = alloca i32, align 4
  %3 = alloca i32, align 4
  %4 = alloca ptr, align 8
  store i32 %0, ptr %2, align 4, !tbaa !31
  call void @llvm.lifetime.start.p0(i64 4, ptr %3) #6
  call void @llvm.lifetime.start.p0(i64 8, ptr %4) #6
  %5 = call noalias ptr @malloc(i64 noundef 32) #7
  store ptr %5, ptr %4, align 8, !tbaa !10
  %6 = load ptr, ptr %4, align 8, !tbaa !10
  call void @llvm.memset.p0.i64(ptr align 8 %6, i8 0, i64 32, i1 false)
  %7 = load i32, ptr %2, align 4, !tbaa !31
  %8 = load ptr, ptr %4, align 8, !tbaa !10
  %9 = getelementptr inbounds nuw %struct.Extra_SymmInfo_t_, ptr %8, i32 0, i32 0
  store i32 %7, ptr %9, align 8, !tbaa !58
  %10 = load i32, ptr %2, align 4, !tbaa !31
  %11 = sext i32 %10 to i64
  %12 = mul i64 4, %11
  %13 = call noalias ptr @malloc(i64 noundef %12) #7
  %14 = load ptr, ptr %4, align 8, !tbaa !10
  %15 = getelementptr inbounds nuw %struct.Extra_SymmInfo_t_, ptr %14, i32 0, i32 4
  store ptr %13, ptr %15, align 8, !tbaa !40
  %16 = load i32, ptr %2, align 4, !tbaa !31
  %17 = sext i32 %16 to i64
  %18 = mul i64 8, %17
  %19 = call noalias ptr @malloc(i64 noundef %18) #7
  %20 = load ptr, ptr %4, align 8, !tbaa !10
  %21 = getelementptr inbounds nuw %struct.Extra_SymmInfo_t_, ptr %20, i32 0, i32 5
  store ptr %19, ptr %21, align 8, !tbaa !44
  %22 = load i32, ptr %2, align 4, !tbaa !31
  %23 = load i32, ptr %2, align 4, !tbaa !31
  %24 = mul nsw i32 %22, %23
  %25 = sext i32 %24 to i64
  %26 = mul i64 1, %25
  %27 = call noalias ptr @malloc(i64 noundef %26) #7
  %28 = load ptr, ptr %4, align 8, !tbaa !10
  %29 = getelementptr inbounds nuw %struct.Extra_SymmInfo_t_, ptr %28, i32 0, i32 5
  %30 = load ptr, ptr %29, align 8, !tbaa !44
  %31 = getelementptr inbounds ptr, ptr %30, i64 0
  store ptr %27, ptr %31, align 8, !tbaa !45
  %32 = load ptr, ptr %4, align 8, !tbaa !10
  %33 = getelementptr inbounds nuw %struct.Extra_SymmInfo_t_, ptr %32, i32 0, i32 5
  %34 = load ptr, ptr %33, align 8, !tbaa !44
  %35 = getelementptr inbounds ptr, ptr %34, i64 0
  %36 = load ptr, ptr %35, align 8, !tbaa !45
  %37 = load i32, ptr %2, align 4, !tbaa !31
  %38 = load i32, ptr %2, align 4, !tbaa !31
  %39 = mul nsw i32 %37, %38
  %40 = sext i32 %39 to i64
  %41 = mul i64 %40, 1
  call void @llvm.memset.p0.i64(ptr align 1 %36, i8 0, i64 %41, i1 false)
  store i32 1, ptr %3, align 4, !tbaa !31
  br label %42

42:                                               ; preds = %64, %1
  %43 = load i32, ptr %3, align 4, !tbaa !31
  %44 = load i32, ptr %2, align 4, !tbaa !31
  %45 = icmp slt i32 %43, %44
  br i1 %45, label %46, label %67

46:                                               ; preds = %42
  %47 = load ptr, ptr %4, align 8, !tbaa !10
  %48 = getelementptr inbounds nuw %struct.Extra_SymmInfo_t_, ptr %47, i32 0, i32 5
  %49 = load ptr, ptr %48, align 8, !tbaa !44
  %50 = load i32, ptr %3, align 4, !tbaa !31
  %51 = sub nsw i32 %50, 1
  %52 = sext i32 %51 to i64
  %53 = getelementptr inbounds ptr, ptr %49, i64 %52
  %54 = load ptr, ptr %53, align 8, !tbaa !45
  %55 = load i32, ptr %2, align 4, !tbaa !31
  %56 = sext i32 %55 to i64
  %57 = getelementptr inbounds i8, ptr %54, i64 %56
  %58 = load ptr, ptr %4, align 8, !tbaa !10
  %59 = getelementptr inbounds nuw %struct.Extra_SymmInfo_t_, ptr %58, i32 0, i32 5
  %60 = load ptr, ptr %59, align 8, !tbaa !44
  %61 = load i32, ptr %3, align 4, !tbaa !31
  %62 = sext i32 %61 to i64
  %63 = getelementptr inbounds ptr, ptr %60, i64 %62
  store ptr %57, ptr %63, align 8, !tbaa !45
  br label %64

64:                                               ; preds = %46
  %65 = load i32, ptr %3, align 4, !tbaa !31
  %66 = add nsw i32 %65, 1
  store i32 %66, ptr %3, align 4, !tbaa !31
  br label %42, !llvm.loop !59

67:                                               ; preds = %42
  %68 = load ptr, ptr %4, align 8, !tbaa !10
  call void @llvm.lifetime.end.p0(i64 8, ptr %4) #6
  call void @llvm.lifetime.end.p0(i64 4, ptr %3) #6
  ret ptr %68
}