; Function Attrs: nofree nounwind memory(readwrite, argmem: none) uwtable
define noalias noundef ptr @Extra_SymmPairsAllocate(i32 noundef %0) local_unnamed_addr #2 {
  %calloc = tail call dereferenceable_or_null(32) ptr @calloc(i64 1, i64 32)
  store i32 %0, ptr %calloc, align 8, !tbaa !26
  %2 = sext i32 %0 to i64
  %3 = shl nsw i64 %2, 2
  %4 = tail call noalias ptr @malloc(i64 noundef %3) #11
  %5 = getelementptr inbounds nuw i8, ptr %calloc, i64 16
  store ptr %4, ptr %5, align 8, !tbaa !29
  %6 = shl nsw i64 %2, 3
  %7 = tail call noalias ptr @malloc(i64 noundef %6) #11
  %8 = getelementptr inbounds nuw i8, ptr %calloc, i64 24
  store ptr %7, ptr %8, align 8, !tbaa !30
  %9 = mul nsw i32 %0, %0
  %10 = zext nneg i32 %9 to i64
  %calloc23 = tail call ptr @calloc(i64 1, i64 %10)
  store ptr %calloc23, ptr %7, align 8, !tbaa !31
  %11 = icmp sgt i32 %0, 1
  br i1 %11, label %.lr.ph.preheader, label %._crit_edge

.lr.ph.preheader:                                 ; preds = %1
  %wide.trip.count = zext nneg i32 %0 to i64
  %load_initial = load ptr, ptr %7, align 8
  br label %.lr.ph

.lr.ph:                                           ; preds = %.lr.ph.preheader, %.lr.ph
  %store_forwarded = phi ptr [ %load_initial, %.lr.ph.preheader ], [ %13, %.lr.ph ]
  %indvars.iv = phi i64 [ 1, %.lr.ph.preheader ], [ %indvars.iv.next, %.lr.ph ]
  %12 = getelementptr ptr, ptr %7, i64 %indvars.iv
  %13 = getelementptr inbounds nuw i8, ptr %store_forwarded, i64 %2
  store ptr %13, ptr %12, align 8, !tbaa !31
  %indvars.iv.next = add nuw nsw i64 %indvars.iv, 1
  %exitcond.not = icmp eq i64 %indvars.iv.next, %wide.trip.count
  br i1 %exitcond.not, label %._crit_edge, label %.lr.ph, !llvm.loop !32

._crit_edge:                                      ; preds = %.lr.ph, %1
  ret ptr %calloc
}